(lp0
S'poi'
p1
aS'salary'
p2
aS'bonus'
p3
aS'total_stock_value'
p4
aS'exercised_stock_options'
p5
aS'from_this_person_to_poi_proportion'
p6
aS'from_poi_to_this_person_proportion'
p7
aS'long_term_incentive'
p8
aS'shared_receipt_with_poi'
p9
aS'restricted_stock'
p10
aS'total_payments'
p11
a.